target datalayout = "e-m:e-p270:32:32-p271:32:32-p272:64:64-i64:64-i128:128-f80:128-n8:16:32:64-S128"
target triple = "x86_64-pc-linux-gnu"

%struct.slurmdb_job_rec_t = type { ptr, ptr, i32, i32, i32, i32, ptr, i32, ptr, ptr, ptr, ptr, i64, i32, ptr, i32, i64, i64, ptr, i32, ptr, ptr, i32, ptr, i32, i32, i32, i32, ptr, ptr, ptr, ptr, ptr, ptr, i32, i32, ptr, i32, i64, i32, i16, i32, ptr, ptr, i16, i32, i64, i32, i32, ptr, ptr, ptr, ptr, i64, ptr, i32, ptr, i64, i64, i32, i64, i64, ptr, ptr, i32, ptr, ptr, i64, i64, ptr, i32, ptr }

@.str.186 = private unnamed_addr constant [8 x i8] c"%u_[%s]\00", align 1
@.str.187 = private unnamed_addr constant [6 x i8] c"%u_%u\00", align 1
@.str.188 = private unnamed_addr constant [6 x i8] c"%u+%u\00", align 1
@.str.189 = private unnamed_addr constant [3 x i8] c"%u\00", align 1

; Function Attrs: nounwind uwtable
define dso_local ptr @slurmdb_get_job_id_str(ptr noundef %0) #0 {
  %2 = alloca ptr, align 8
  %3 = alloca ptr, align 8
  store ptr %0, ptr %2, align 8
  call void @llvm.lifetime.start.p0(i64 8, ptr %3) #10
  store ptr null, ptr %3, align 8
  %4 = load ptr, ptr %2, align 8
  %5 = getelementptr inbounds nuw %struct.slurmdb_job_rec_t, ptr %4, i32 0, i32 6
  %6 = load ptr, ptr %5, align 8
  %7 = icmp ne ptr %6, null
  br i1 %7, label %8, label %21

8:                                                ; preds = %1
  %9 = load ptr, ptr %2, align 8
  %10 = getelementptr inbounds nuw %struct.slurmdb_job_rec_t, ptr %9, i32 0, i32 6
  %11 = load ptr, ptr %2, align 8
  %12 = getelementptr inbounds nuw %struct.slurmdb_job_rec_t, ptr %11, i32 0, i32 4
  %13 = load i32, ptr %12, align 8
  call void @xlate_array_task_str(ptr noundef %10, i32 noundef %13, ptr noundef null)
  %14 = load ptr, ptr %2, align 8
  %15 = getelementptr inbounds nuw %struct.slurmdb_job_rec_t, ptr %14, i32 0, i32 3
  %16 = load i32, ptr %15, align 4
  %17 = load ptr, ptr %2, align 8
  %18 = getelementptr inbounds nuw %struct.slurmdb_job_rec_t, ptr %17, i32 0, i32 6
  %19 = load ptr, ptr %18, align 8
  %20 = call ptr (ptr, ...) @xstrdup_printf(ptr noundef @.str.186, i32 noundef %16, ptr noundef %19)
  store ptr %20, ptr %3, align 8
  br label %54

21:                                               ; preds = %1
  %22 = load ptr, ptr %2, align 8
  %23 = getelementptr inbounds nuw %struct.slurmdb_job_rec_t, ptr %22, i32 0, i32 5
  %24 = load i32, ptr %23, align 4
  %25 = icmp ne i32 %24, -2
  br i1 %25, label %26, label %34

26:                                               ; preds = %21
  %27 = load ptr, ptr %2, align 8
  %28 = getelementptr inbounds nuw %struct.slurmdb_job_rec_t, ptr %27, i32 0, i32 3
  %29 = load i32, ptr %28, align 4
  %30 = load ptr, ptr %2, align 8
  %31 = getelementptr inbounds nuw %struct.slurmdb_job_rec_t, ptr %30, i32 0, i32 5
  %32 = load i32, ptr %31, align 4
  %33 = call ptr (ptr, ...) @xstrdup_printf(ptr noundef @.str.187, i32 noundef %29, i32 noundef %32)
  store ptr %33, ptr %3, align 8
  br label %53

34:                                               ; preds = %21
  %35 = load ptr, ptr %2, align 8
  %36 = getelementptr inbounds nuw %struct.slurmdb_job_rec_t, ptr %35, i32 0, i32 25
  %37 = load i32, ptr %36, align 4
  %38 = icmp ne i32 %37, 0
  br i1 %38, label %39, label %47

39:                                               ; preds = %34
  %40 = load ptr, ptr %2, align 8
  %41 = getelementptr inbounds nuw %struct.slurmdb_job_rec_t, ptr %40, i32 0, i32 25
  %42 = load i32, ptr %41, align 4
  %43 = load ptr, ptr %2, align 8
  %44 = getelementptr inbounds nuw %struct.slurmdb_job_rec_t, ptr %43, i32 0, i32 26
  %45 = load i32, ptr %44, align 8
  %46 = call ptr (ptr, ...) @xstrdup_printf(ptr noundef @.str.188, i32 noundef %42, i32 noundef %45)
  store ptr %46, ptr %3, align 8
  br label %52

47:                                               ; preds = %34
  %48 = load ptr, ptr %2, align 8
  %49 = getelementptr inbounds nuw %struct.slurmdb_job_rec_t, ptr %48, i32 0, i32 27
  %50 = load i32, ptr %49, align 4
  %51 = call ptr (ptr, ...) @xstrdup_printf(ptr noundef @.str.189, i32 noundef %50)
  store ptr %51, ptr %3, align 8
  br label %52

52:                                               ; preds = %47, %39
  br label %53

53:                                               ; preds = %52, %26
  br label %54

54:                                               ; preds = %53, %8
  %55 = load ptr, ptr %3, align 8
  call void @llvm.lifetime.end.p0(i64 8, ptr %3) #10
  ret ptr %55
}