; Function Attrs: nounwind uwtable
define dso_local ptr @slurmdb_get_job_id_str(ptr noundef %0) local_unnamed_addr #0 {
  %2 = getelementptr inbounds nuw i8, ptr %0, i64 32
  %3 = load ptr, ptr %2, align 8
  %.not = icmp eq ptr %3, null
  br i1 %.not, label %11, label %4

4:                                                ; preds = %1
  %5 = getelementptr inbounds nuw i8, ptr %0, i64 24
  %6 = load i32, ptr %5, align 8
  tail call void @xlate_array_task_str(ptr noundef nonnull %2, i32 noundef %6, ptr noundef null) #19
  %7 = getelementptr inbounds nuw i8, ptr %0, i64 20
  %8 = load i32, ptr %7, align 4
  %9 = load ptr, ptr %2, align 8
  %10 = tail call ptr (ptr, ...) @xstrdup_printf(ptr noundef nonnull @.str.186, i32 noundef %8, ptr noundef %9) #19
  br label %29

11:                                               ; preds = %1
  %12 = getelementptr inbounds nuw i8, ptr %0, i64 28
  %13 = load i32, ptr %12, align 4
  %.not15 = icmp eq i32 %13, -2
  br i1 %.not15, label %18, label %14

14:                                               ; preds = %11
  %15 = getelementptr inbounds nuw i8, ptr %0, i64 20
  %16 = load i32, ptr %15, align 4
  %17 = tail call ptr (ptr, ...) @xstrdup_printf(ptr noundef nonnull @.str.187, i32 noundef %16, i32 noundef %13) #19
  br label %29

18:                                               ; preds = %11
  %19 = getelementptr inbounds nuw i8, ptr %0, i64 180
  %20 = load i32, ptr %19, align 4
  %.not16 = icmp eq i32 %20, 0
  br i1 %.not16, label %25, label %21

21:                                               ; preds = %18
  %22 = getelementptr inbounds nuw i8, ptr %0, i64 184
  %23 = load i32, ptr %22, align 8
  %24 = tail call ptr (ptr, ...) @xstrdup_printf(ptr noundef nonnull @.str.188, i32 noundef %20, i32 noundef %23) #19
  br label %29

25:                                               ; preds = %18
  %26 = getelementptr inbounds nuw i8, ptr %0, i64 188
  %27 = load i32, ptr %26, align 4
  %28 = tail call ptr (ptr, ...) @xstrdup_printf(ptr noundef nonnull @.str.189, i32 noundef %27) #19
  br label %29

29:                                               ; preds = %14, %25, %21, %4
  %.0 = phi ptr [ %10, %4 ], [ %17, %14 ], [ %24, %21 ], [ %28, %25 ]
  ret ptr %.0
}